target datalayout = "e-m:e-p270:32:32-p271:32:32-p272:64:64-i64:64-i128:128-f80:128-n8:16:32:64-S128"
target triple = "x86_64-pc-linux-gnu"

@awt_MainThread = internal global i64 0, align 8
@AWT_FLUSH_TIMEOUT = internal global i32 100, align 4
@tracing = internal global i32 0, align 4
@awt_pipe_fds = internal global [2 x i32] zeroinitializer, align 4
@curPollTimeout = internal global i32 0, align 4
@awt_poll_alg = internal global i32 2, align 4
@AWT_MAX_POLL_TIMEOUT = internal global i32 500, align 4
@static_poll_timeout = internal global i32 0, align 4
@awt_pipe_inited = internal global i8 0, align 1
@readEnv.env_read = internal global i8 0, align 1
@.str.40 = private unnamed_addr constant [22 x i8] c"_AWT_MAX_POLL_TIMEOUT\00", align 1
@.str.41 = private unnamed_addr constant [19 x i8] c"_AWT_FLUSH_TIMEOUT\00", align 1
@.str.42 = private unnamed_addr constant [18 x i8] c"_AWT_POLL_TRACING\00", align 1
@.str.43 = private unnamed_addr constant [25 x i8] c"_AWT_STATIC_POLL_TIMEOUT\00", align 1
@.str.44 = private unnamed_addr constant [14 x i8] c"_AWT_POLL_ALG\00", align 1
@.str.45 = private unnamed_addr constant [73 x i8] c"Unknown value of _AWT_POLL_ALG, assuming Slow Aging Algorithm by default\00", align 1

; Function Attrs: nounwind uwtable
define internal void @readEnv() #0 {
  %1 = alloca ptr, align 8
  %2 = alloca i32, align 4
  %3 = load i8, ptr @readEnv.env_read, align 1
  %4 = icmp ne i8 %3, 0
  br i1 %4, label %5, label %6

5:                                                ; preds = %0
  br label %66

6:                                                ; preds = %0
  store i8 1, ptr @readEnv.env_read, align 1
  %7 = call ptr @getenv(ptr noundef @.str.40) #5
  store ptr %7, ptr %1, align 8
  %8 = load ptr, ptr %1, align 8
  %9 = icmp ne ptr %8, null
  br i1 %9, label %10, label %17

10:                                               ; preds = %6
  %11 = load ptr, ptr %1, align 8
  %12 = call i32 @atoi(ptr noundef %11) #7
  store i32 %12, ptr @AWT_MAX_POLL_TIMEOUT, align 4
  %13 = load i32, ptr @AWT_MAX_POLL_TIMEOUT, align 4
  %14 = icmp eq i32 %13, 0
  br i1 %14, label %15, label %16

15:                                               ; preds = %10
  store i32 500, ptr @AWT_MAX_POLL_TIMEOUT, align 4
  br label %16

16:                                               ; preds = %15, %10
  br label %17

17:                                               ; preds = %16, %6
  %18 = load i32, ptr @AWT_MAX_POLL_TIMEOUT, align 4
  %19 = udiv i32 %18, 2
  store i32 %19, ptr @curPollTimeout, align 4
  %20 = call ptr @getenv(ptr noundef @.str.41) #5
  store ptr %20, ptr %1, align 8
  %21 = load ptr, ptr %1, align 8
  %22 = icmp ne ptr %21, null
  br i1 %22, label %23, label %30

23:                                               ; preds = %17
  %24 = load ptr, ptr %1, align 8
  %25 = call i32 @atoi(ptr noundef %24) #7
  store i32 %25, ptr @AWT_FLUSH_TIMEOUT, align 4
  %26 = load i32, ptr @AWT_FLUSH_TIMEOUT, align 4
  %27 = icmp eq i32 %26, 0
  br i1 %27, label %28, label %29

28:                                               ; preds = %23
  store i32 100, ptr @AWT_FLUSH_TIMEOUT, align 4
  br label %29

29:                                               ; preds = %28, %23
  br label %30

30:                                               ; preds = %29, %17
  %31 = call ptr @getenv(ptr noundef @.str.42) #5
  store ptr %31, ptr %1, align 8
  %32 = load ptr, ptr %1, align 8
  %33 = icmp ne ptr %32, null
  br i1 %33, label %34, label %37

34:                                               ; preds = %30
  %35 = load ptr, ptr %1, align 8
  %36 = call i32 @atoi(ptr noundef %35) #7
  store i32 %36, ptr @tracing, align 4
  br label %37

37:                                               ; preds = %34, %30
  %38 = call ptr @getenv(ptr noundef @.str.43) #5
  store ptr %38, ptr %1, align 8
  %39 = load ptr, ptr %1, align 8
  %40 = icmp ne ptr %39, null
  br i1 %40, label %41, label %44

41:                                               ; preds = %37
  %42 = load ptr, ptr %1, align 8
  %43 = call i32 @atoi(ptr noundef %42) #7
  store i32 %43, ptr @static_poll_timeout, align 4
  br label %44

44:                                               ; preds = %41, %37
  %45 = load i32, ptr @static_poll_timeout, align 4
  %46 = icmp ne i32 %45, 0
  br i1 %46, label %47, label %49

47:                                               ; preds = %44
  %48 = load i32, ptr @static_poll_timeout, align 4
  store i32 %48, ptr @curPollTimeout, align 4
  br label %49

49:                                               ; preds = %47, %44
  %50 = call ptr @getenv(ptr noundef @.str.44) #5
  store ptr %50, ptr %1, align 8
  %51 = load ptr, ptr %1, align 8
  %52 = icmp ne ptr %51, null
  br i1 %52, label %53, label %66

53:                                               ; preds = %49
  %54 = load ptr, ptr %1, align 8
  %55 = call i32 @atoi(ptr noundef %54) #7
  store i32 %55, ptr %2, align 4
  %56 = load i32, ptr %2, align 4
  switch i32 %56, label %59 [
    i32 1, label %57
    i32 2, label %57
    i32 3, label %57
  ]

57:                                               ; preds = %53, %53, %53
  %58 = load i32, ptr %2, align 4
  store i32 %58, ptr @awt_poll_alg, align 4
  br label %65

59:                                               ; preds = %53
  %60 = load i32, ptr @tracing, align 4
  %61 = icmp ne i32 %60, 0
  br i1 %61, label %62, label %64

62:                                               ; preds = %59
  %63 = call i32 (ptr, ...) @printf(ptr noundef @.str.45)
  br label %64

64:                                               ; preds = %62, %59
  store i32 2, ptr @awt_poll_alg, align 4
  br label %65

65:                                               ; preds = %64, %57
  br label %66

66:                                               ; preds = %65, %49, %5
  ret void
}

; Function Attrs: nounwind uwtable
define internal void @awt_pipe_init() #0 {
  %1 = alloca i32, align 4
  %2 = load i8, ptr @awt_pipe_inited, align 1
  %3 = icmp ne i8 %2, 0
  br i1 %3, label %4, label %5

4:                                                ; preds = %0
  br label %24

5:                                                ; preds = %0
  %6 = call i32 @pipe(ptr noundef @awt_pipe_fds) #5
  %7 = icmp eq i32 %6, 0
  br i1 %7, label %8, label %23

8:                                                ; preds = %5
  store i32 0, ptr %1, align 4
  %9 = load i32, ptr @awt_pipe_fds, align 4
  %10 = call i32 (i32, i32, ...) @fcntl64(i32 noundef %9, i32 noundef 3, i32 noundef 0)
  store i32 %10, ptr %1, align 4
  %11 = load i32, ptr @awt_pipe_fds, align 4
  %12 = load i32, ptr %1, align 4
  %13 = or i32 %12, 2048
  %14 = or i32 %13, 2048
  %15 = call i32 (i32, i32, ...) @fcntl64(i32 noundef %11, i32 noundef 4, i32 noundef %14)
  %16 = load i32, ptr getelementptr inbounds ([2 x i32], ptr @awt_pipe_fds, i64 0, i64 1), align 4
  %17 = call i32 (i32, i32, ...) @fcntl64(i32 noundef %16, i32 noundef 3, i32 noundef 0)
  store i32 %17, ptr %1, align 4
  %18 = load i32, ptr getelementptr inbounds ([2 x i32], ptr @awt_pipe_fds, i64 0, i64 1), align 4
  %19 = load i32, ptr %1, align 4
  %20 = or i32 %19, 2048
  %21 = or i32 %20, 2048
  %22 = call i32 (i32, i32, ...) @fcntl64(i32 noundef %18, i32 noundef 4, i32 noundef %21)
  store i8 1, ptr @awt_pipe_inited, align 1
  br label %24

23:                                               ; preds = %5
  store i32 -1, ptr @awt_pipe_fds, align 4
  store i32 -1, ptr getelementptr inbounds ([2 x i32], ptr @awt_pipe_fds, i64 0, i64 1), align 4
  br label %24

24:                                               ; preds = %23, %8, %4
  ret void
}

; Function Attrs: nounwind uwtable
define void @Java_sun_awt_X11_XToolkit_awt_1toolkit_1init(ptr noundef %0, ptr noundef %1) #0 {
  %3 = alloca ptr, align 8
  %4 = alloca ptr, align 8
  store ptr %0, ptr %3, align 8
  store ptr %1, ptr %4, align 8
  %5 = call i64 @pthread_self() #6
  store i64 %5, ptr @awt_MainThread, align 8
  call void @awt_pipe_init()
  call void @readEnv()
  ret void
}