; Function Attrs: nounwind uwtable
define void @Java_sun_awt_X11_XToolkit_awt_1toolkit_1init(ptr nocapture noundef readnone %0, ptr nocapture noundef readnone %1) local_unnamed_addr #0 {
  %3 = tail call i64 @pthread_self() #14
  store i64 %3, ptr @awt_MainThread, align 8
  %.b.i = load i1, ptr @awt_pipe_inited, align 1
  br i1 %.b.i, label %awt_pipe_init.exit, label %4

4:                                                ; preds = %2
  %5 = tail call i32 @pipe(ptr noundef nonnull @awt_pipe_fds) #13
  %6 = icmp eq i32 %5, 0
  br i1 %6, label %7, label %18

7:                                                ; preds = %4
  %8 = load i32, ptr @awt_pipe_fds, align 4
  %9 = tail call i32 (i32, i32, ...) @fcntl64(i32 noundef %8, i32 noundef 3, i32 noundef 0) #13
  %10 = load i32, ptr @awt_pipe_fds, align 4
  %11 = or i32 %9, 2048
  %12 = tail call i32 (i32, i32, ...) @fcntl64(i32 noundef %10, i32 noundef 4, i32 noundef %11) #13
  %13 = load i32, ptr getelementptr inbounds (i8, ptr @awt_pipe_fds, i64 4), align 4
  %14 = tail call i32 (i32, i32, ...) @fcntl64(i32 noundef %13, i32 noundef 3, i32 noundef 0) #13
  %15 = load i32, ptr getelementptr inbounds (i8, ptr @awt_pipe_fds, i64 4), align 4
  %16 = or i32 %14, 2048
  %17 = tail call i32 (i32, i32, ...) @fcntl64(i32 noundef %15, i32 noundef 4, i32 noundef %16) #13
  store i1 true, ptr @awt_pipe_inited, align 1
  br label %awt_pipe_init.exit

18:                                               ; preds = %4
  store i32 -1, ptr @awt_pipe_fds, align 4
  store i32 -1, ptr getelementptr inbounds (i8, ptr @awt_pipe_fds, i64 4), align 4
  br label %awt_pipe_init.exit

awt_pipe_init.exit:                               ; preds = %2, %7, %18
  %.b.i1 = load i1, ptr @readEnv.env_read, align 1
  br i1 %.b.i1, label %readEnv.exit, label %19

19:                                               ; preds = %awt_pipe_init.exit
  store i1 true, ptr @readEnv.env_read, align 1
  %20 = tail call ptr @getenv(ptr noundef nonnull @.str.40) #13
  %.not.i = icmp eq ptr %20, null
  br i1 %.not.i, label %._crit_edge.i, label %21

._crit_edge.i:                                    ; preds = %19
  %.pre.i = load i32, ptr @AWT_MAX_POLL_TIMEOUT, align 4
  br label %24

21:                                               ; preds = %19
  %22 = tail call i32 @atoi(ptr nocapture noundef nonnull %20) #15
  %23 = icmp eq i32 %22, 0
  %spec.store.select.i = select i1 %23, i32 500, i32 %22
  store i32 %spec.store.select.i, ptr @AWT_MAX_POLL_TIMEOUT, align 4
  br label %24

24:                                               ; preds = %21, %._crit_edge.i
  %25 = phi i32 [ %.pre.i, %._crit_edge.i ], [ %spec.store.select.i, %21 ]
  %26 = lshr i32 %25, 1
  store i32 %26, ptr @curPollTimeout, align 4
  %27 = tail call ptr @getenv(ptr noundef nonnull @.str.41) #13
  %.not17.i = icmp eq ptr %27, null
  br i1 %.not17.i, label %31, label %28

28:                                               ; preds = %24
  %29 = tail call i32 @atoi(ptr nocapture noundef nonnull %27) #15
  %30 = icmp eq i32 %29, 0
  %spec.store.select1.i = select i1 %30, i32 100, i32 %29
  store i32 %spec.store.select1.i, ptr @AWT_FLUSH_TIMEOUT, align 4
  br label %31

31:                                               ; preds = %28, %24
  %32 = tail call ptr @getenv(ptr noundef nonnull @.str.42) #13
  %.not18.i = icmp eq ptr %32, null
  br i1 %.not18.i, label %35, label %33

33:                                               ; preds = %31
  %34 = tail call i32 @atoi(ptr nocapture noundef nonnull %32) #15
  store i32 %34, ptr @tracing, align 4
  br label %35

35:                                               ; preds = %33, %31
  %36 = tail call ptr @getenv(ptr noundef nonnull @.str.43) #13
  %.not19.i = icmp eq ptr %36, null
  br i1 %.not19.i, label %thread-pre-split.i, label %37

37:                                               ; preds = %35
  %38 = tail call i32 @atoi(ptr nocapture noundef nonnull %36) #15
  store i32 %38, ptr @static_poll_timeout, align 4
  br label %39

thread-pre-split.i:                               ; preds = %35
  %.pr.i = load i32, ptr @static_poll_timeout, align 4
  br label %39

39:                                               ; preds = %thread-pre-split.i, %37
  %40 = phi i32 [ %.pr.i, %thread-pre-split.i ], [ %38, %37 ]
  %.not20.i = icmp eq i32 %40, 0
  br i1 %.not20.i, label %42, label %41

41:                                               ; preds = %39
  store i32 %40, ptr @curPollTimeout, align 4
  br label %42

42:                                               ; preds = %41, %39
  %43 = tail call ptr @getenv(ptr noundef nonnull @.str.44) #13
  %.not21.i = icmp eq ptr %43, null
  br i1 %.not21.i, label %readEnv.exit, label %44

44:                                               ; preds = %42
  %45 = tail call i32 @atoi(ptr nocapture noundef nonnull %43) #15
  %.off.i = add i32 %45, -1
  %switch.i = icmp ult i32 %.off.i, 3
  br i1 %switch.i, label %.sink.split.i, label %46

46:                                               ; preds = %44
  %47 = load i32, ptr @tracing, align 4
  %.not22.i = icmp eq i32 %47, 0
  br i1 %.not22.i, label %.sink.split.i, label %48

48:                                               ; preds = %46
  %49 = tail call i32 (ptr, ...) @printf(ptr noundef nonnull dereferenceable(1) @.str.45)
  br label %.sink.split.i

.sink.split.i:                                    ; preds = %48, %46, %44
  %.sink.i = phi i32 [ %45, %44 ], [ 2, %48 ], [ 2, %46 ]
  store i32 %.sink.i, ptr @awt_poll_alg, align 4
  br label %readEnv.exit

readEnv.exit:                                     ; preds = %awt_pipe_init.exit, %42, %.sink.split.i
  ret void
}